CCS PCM C Compiler, Version 5.115, 43599               21-Nov-23 20:37

               Filename:   C:\Users\84859\Desktop\VXL\BAI 10\BAI 10.lst

               ROM used:   1214 words (15%)
                           Largest free fragment is 2048
               RAM used:   30 (8%) at main() level
                           57 (15%) worst case
               Stack used: 5 locations (3 in main + 2 for interrupts)
               Stack size: 8

*
0000:  MOVLW  04
0001:  MOVWF  0A
0002:  GOTO   459
0003:  NOP
0004:  MOVWF  7F
0005:  SWAPF  03,W
0006:  CLRF   03
0007:  MOVWF  21
0008:  MOVF   0A,W
0009:  MOVWF  20
000A:  CLRF   0A
000B:  MOVF   04,W
000C:  MOVWF  22
000D:  MOVF   77,W
000E:  MOVWF  23
000F:  MOVF   78,W
0010:  MOVWF  24
0011:  MOVF   79,W
0012:  MOVWF  25
0013:  MOVF   7A,W
0014:  MOVWF  26
0015:  BSF    03.6
0016:  MOVF   0D,W
0017:  BCF    03.6
0018:  MOVWF  27
0019:  BSF    03.6
001A:  MOVF   0F,W
001B:  BCF    03.6
001C:  MOVWF  28
001D:  BSF    03.6
001E:  MOVF   0C,W
001F:  BCF    03.6
0020:  MOVWF  29
0021:  BSF    03.6
0022:  MOVF   0E,W
0023:  BCF    03.6
0024:  MOVWF  2A
0025:  BCF    03.7
0026:  BCF    03.5
0027:  MOVLW  8C
0028:  MOVWF  04
0029:  BTFSS  00.6
002A:  GOTO   02D
002B:  BTFSC  0C.6
002C:  GOTO   05A
002D:  MOVLW  8C
002E:  MOVWF  04
002F:  BTFSS  00.0
0030:  GOTO   033
0031:  BTFSC  0C.0
0032:  GOTO   05D
0033:  MOVLW  8C
0034:  MOVWF  04
0035:  BTFSS  00.1
0036:  GOTO   039
0037:  BTFSC  0C.1
0038:  GOTO   060
0039:  MOVF   22,W
003A:  MOVWF  04
003B:  MOVF   23,W
003C:  MOVWF  77
003D:  MOVF   24,W
003E:  MOVWF  78
003F:  MOVF   25,W
0040:  MOVWF  79
0041:  MOVF   26,W
0042:  MOVWF  7A
0043:  MOVF   27,W
0044:  BSF    03.6
0045:  MOVWF  0D
0046:  BCF    03.6
0047:  MOVF   28,W
0048:  BSF    03.6
0049:  MOVWF  0F
004A:  BCF    03.6
004B:  MOVF   29,W
004C:  BSF    03.6
004D:  MOVWF  0C
004E:  BCF    03.6
004F:  MOVF   2A,W
0050:  BSF    03.6
0051:  MOVWF  0E
0052:  BCF    03.6
0053:  MOVF   20,W
0054:  MOVWF  0A
0055:  SWAPF  21,W
0056:  MOVWF  03
0057:  SWAPF  7F,F
0058:  SWAPF  7F,W
0059:  RETFIE
005A:  BCF    0A.3
005B:  BCF    0A.4
005C:  GOTO   19B
005D:  BCF    0A.3
005E:  BCF    0A.4
005F:  GOTO   085
0060:  BCF    0A.3
0061:  BCF    0A.4
0062:  GOTO   090
.................... #include<16f887.h>
.................... //////////// Standard Header file for the PIC16F887 device ////////////////
.................... ///////////////////////////////////////////////////////////////////////////
.................... ////        (C) Copyright 1996, 2020 Custom Computer Services          ////
.................... //// This source code may only be used by licensed users of the CCS C  ////
.................... //// compiler.  This source code may only be distributed to other      ////
.................... //// licensed users of the CCS C compiler.  No other use, reproduction ////
.................... //// or distribution is permitted without written permission.          ////
.................... //// Derivative programs created using this software in object code    ////
.................... //// form are not restricted in any way.                               ////
.................... ///////////////////////////////////////////////////////////////////////////
.................... #device PIC16F887
0063:  DATA D3,27
0064:  DATA A0,29
0065:  DATA 50,1D
0066:  DATA A0,12
0067:  DATA 30,19
0068:  DATA 75,10
0069:  DATA C3,20
006A:  DATA 49,00
006B:  DATA 54,24
006C:  DATA CF,24
006D:  DATA A0,23
006E:  DATA C9,20
006F:  DATA 4E,1D
0070:  DATA A0,12
0071:  DATA 30,19
0072:  DATA 75,1D
0073:  DATA 25,18
0074:  DATA B2,3A
0075:  DATA BA,12
0076:  DATA 30,19
0077:  DATA 75,00
0078:  DATA 54,24
0079:  DATA CF,24
007A:  DATA A0,23
007B:  DATA C9,20
007C:  DATA 4E,1D
007D:  DATA A0,12
007E:  DATA 30,19
007F:  DATA 75,1D
0080:  DATA 25,18
0081:  DATA B2,3A
0082:  DATA BA,12
0083:  DATA 30,19
0084:  DATA 75,00
*
0095:  MOVLW  8E
0096:  MOVWF  77
0097:  MOVF   47,W
0098:  MOVWF  78
0099:  MOVF   46,W
009A:  MOVWF  79
009B:  CLRF   7A
009C:  MOVF   78,F
009D:  BTFSS  03.2
009E:  GOTO   0A9
009F:  MOVF   79,W
00A0:  MOVWF  78
00A1:  CLRF   79
00A2:  MOVLW  08
00A3:  SUBWF  77,F
00A4:  MOVF   78,F
00A5:  BTFSS  03.2
00A6:  GOTO   0A9
00A7:  CLRF   77
00A8:  GOTO   0B1
00A9:  BCF    03.0
00AA:  BTFSC  78.7
00AB:  GOTO   0B0
00AC:  RLF    79,F
00AD:  RLF    78,F
00AE:  DECF   77,F
00AF:  GOTO   0A9
00B0:  BCF    78.7
00B1:  RETURN
00B2:  MOVF   46,W
00B3:  BTFSC  03.2
00B4:  GOTO   177
00B5:  MOVWF  52
00B6:  MOVF   4A,W
00B7:  BTFSC  03.2
00B8:  GOTO   177
00B9:  SUBWF  52,F
00BA:  BTFSS  03.0
00BB:  GOTO   0C1
00BC:  MOVLW  7F
00BD:  ADDWF  52,F
00BE:  BTFSC  03.0
00BF:  GOTO   177
00C0:  GOTO   0C7
00C1:  MOVLW  81
00C2:  SUBWF  52,F
00C3:  BTFSS  03.0
00C4:  GOTO   177
00C5:  BTFSC  03.2
00C6:  GOTO   177
00C7:  MOVF   52,W
00C8:  MOVWF  77
00C9:  CLRF   78
00CA:  CLRF   79
00CB:  CLRF   7A
00CC:  CLRF   51
00CD:  MOVF   47,W
00CE:  MOVWF  50
00CF:  BSF    50.7
00D0:  MOVF   48,W
00D1:  MOVWF  4F
00D2:  MOVF   49,W
00D3:  MOVWF  4E
00D4:  MOVLW  19
00D5:  MOVWF  52
00D6:  MOVF   4D,W
00D7:  SUBWF  4E,F
00D8:  BTFSC  03.0
00D9:  GOTO   0EA
00DA:  MOVLW  01
00DB:  SUBWF  4F,F
00DC:  BTFSC  03.0
00DD:  GOTO   0EA
00DE:  SUBWF  50,F
00DF:  BTFSC  03.0
00E0:  GOTO   0EA
00E1:  SUBWF  51,F
00E2:  BTFSC  03.0
00E3:  GOTO   0EA
00E4:  INCF   51,F
00E5:  INCF   50,F
00E6:  INCF   4F,F
00E7:  MOVF   4D,W
00E8:  ADDWF  4E,F
00E9:  GOTO   11C
00EA:  MOVF   4C,W
00EB:  SUBWF  4F,F
00EC:  BTFSC  03.0
00ED:  GOTO   105
00EE:  MOVLW  01
00EF:  SUBWF  50,F
00F0:  BTFSC  03.0
00F1:  GOTO   105
00F2:  SUBWF  51,F
00F3:  BTFSC  03.0
00F4:  GOTO   105
00F5:  INCF   51,F
00F6:  INCF   50,F
00F7:  MOVF   4C,W
00F8:  ADDWF  4F,F
00F9:  MOVF   4D,W
00FA:  ADDWF  4E,F
00FB:  BTFSS  03.0
00FC:  GOTO   11C
00FD:  INCF   4F,F
00FE:  BTFSS  03.2
00FF:  GOTO   11C
0100:  INCF   50,F
0101:  BTFSS  03.2
0102:  GOTO   11C
0103:  INCF   51,F
0104:  GOTO   11C
0105:  MOVF   4B,W
0106:  IORLW  80
0107:  SUBWF  50,F
0108:  BTFSC  03.0
0109:  GOTO   11B
010A:  MOVLW  01
010B:  SUBWF  51,F
010C:  BTFSC  03.0
010D:  GOTO   11B
010E:  INCF   51,F
010F:  MOVF   4B,W
0110:  IORLW  80
0111:  ADDWF  50,F
0112:  MOVF   4C,W
0113:  ADDWF  4F,F
0114:  BTFSS  03.0
0115:  GOTO   0F9
0116:  INCF   50,F
0117:  BTFSS  03.2
0118:  GOTO   0F9
0119:  INCF   51,F
011A:  GOTO   0F9
011B:  BSF    7A.0
011C:  DECFSZ 52,F
011D:  GOTO   11F
011E:  GOTO   12A
011F:  BCF    03.0
0120:  RLF    4E,F
0121:  RLF    4F,F
0122:  RLF    50,F
0123:  RLF    51,F
0124:  BCF    03.0
0125:  RLF    7A,F
0126:  RLF    79,F
0127:  RLF    78,F
0128:  RLF    53,F
0129:  GOTO   0D6
012A:  BTFSS  53.0
012B:  GOTO   132
012C:  BCF    03.0
012D:  RRF    78,F
012E:  RRF    79,F
012F:  RRF    7A,F
0130:  RRF    53,F
0131:  GOTO   135
0132:  DECF   77,F
0133:  BTFSC  03.2
0134:  GOTO   177
0135:  BTFSC  53.7
0136:  GOTO   15E
0137:  BCF    03.0
0138:  RLF    4E,F
0139:  RLF    4F,F
013A:  RLF    50,F
013B:  RLF    51,F
013C:  MOVF   4D,W
013D:  SUBWF  4E,F
013E:  BTFSC  03.0
013F:  GOTO   14A
0140:  MOVLW  01
0141:  SUBWF  4F,F
0142:  BTFSC  03.0
0143:  GOTO   14A
0144:  SUBWF  50,F
0145:  BTFSC  03.0
0146:  GOTO   14A
0147:  SUBWF  51,F
0148:  BTFSS  03.0
0149:  GOTO   16D
014A:  MOVF   4C,W
014B:  SUBWF  4F,F
014C:  BTFSC  03.0
014D:  GOTO   155
014E:  MOVLW  01
014F:  SUBWF  50,F
0150:  BTFSC  03.0
0151:  GOTO   155
0152:  SUBWF  51,F
0153:  BTFSS  03.0
0154:  GOTO   16D
0155:  MOVF   4B,W
0156:  IORLW  80
0157:  SUBWF  50,F
0158:  BTFSC  03.0
0159:  GOTO   15E
015A:  MOVLW  01
015B:  SUBWF  51,F
015C:  BTFSS  03.0
015D:  GOTO   16D
015E:  INCF   7A,F
015F:  BTFSS  03.2
0160:  GOTO   16D
0161:  INCF   79,F
0162:  BTFSS  03.2
0163:  GOTO   16D
0164:  INCF   78,F
0165:  BTFSS  03.2
0166:  GOTO   16D
0167:  INCF   77,F
0168:  BTFSC  03.2
0169:  GOTO   177
016A:  RRF    78,F
016B:  RRF    79,F
016C:  RRF    7A,F
016D:  MOVF   47,W
016E:  MOVWF  52
016F:  MOVF   4B,W
0170:  XORWF  52,F
0171:  BTFSS  52.7
0172:  GOTO   175
0173:  BSF    78.7
0174:  GOTO   17B
0175:  BCF    78.7
0176:  GOTO   17B
0177:  CLRF   77
0178:  CLRF   78
0179:  CLRF   79
017A:  CLRF   7A
017B:  RETURN
017C:  MOVLW  8E
017D:  MOVWF  77
017E:  MOVF   44,W
017F:  SUBWF  77,F
0180:  MOVF   45,W
0181:  MOVWF  79
0182:  MOVF   46,W
0183:  MOVWF  78
0184:  BSF    79.7
0185:  MOVF   77,F
0186:  BTFSC  03.2
0187:  GOTO   193
0188:  BCF    03.0
0189:  MOVF   79,F
018A:  BTFSS  03.2
018B:  GOTO   18F
018C:  MOVF   78,F
018D:  BTFSC  03.2
018E:  GOTO   193
018F:  RRF    79,F
0190:  RRF    78,F
0191:  DECFSZ 77,F
0192:  GOTO   188
0193:  BTFSS  45.7
0194:  GOTO   19A
0195:  COMF   78,F
0196:  COMF   79,F
0197:  INCF   78,F
0198:  BTFSC  03.2
0199:  INCF   79,F
019A:  RETURN
*
0274:  MOVF   0B,W
0275:  MOVWF  3A
0276:  BCF    0B.7
0277:  BSF    03.5
0278:  BSF    03.6
0279:  BSF    0C.7
027A:  BSF    0C.0
027B:  NOP
027C:  NOP
027D:  BCF    03.5
027E:  BCF    03.6
027F:  BTFSC  3A.7
0280:  BSF    0B.7
0281:  BTFSC  03.0
0282:  GOTO   2AB
0283:  BSF    03.6
0284:  MOVF   0C,W
0285:  ANDLW  7F
0286:  BCF    03.6
0287:  MOVWF  3A
0288:  BSF    03.6
0289:  MOVF   0D,W
028A:  BCF    03.6
028B:  MOVWF  3B
028C:  BSF    03.6
028D:  MOVF   0F,W
028E:  BCF    03.6
028F:  MOVWF  3C
0290:  MOVF   3A,W
0291:  MOVWF  42
0292:  CALL   253
0293:  MOVF   3B,W
0294:  BSF    03.6
0295:  MOVWF  0D
0296:  BCF    03.6
0297:  MOVF   3C,W
0298:  BSF    03.6
0299:  MOVWF  0F
029A:  BCF    03.6
029B:  MOVF   0B,W
029C:  MOVWF  3D
029D:  BCF    0B.7
029E:  BSF    03.5
029F:  BSF    03.6
02A0:  BSF    0C.7
02A1:  BSF    0C.0
02A2:  NOP
02A3:  NOP
02A4:  BCF    03.5
02A5:  BCF    03.6
02A6:  BTFSC  3D.7
02A7:  BSF    0B.7
02A8:  DECFSZ 39,F
02A9:  GOTO   2AB
02AA:  GOTO   2CA
02AB:  BSF    03.6
02AC:  RLF    0C,W
02AD:  RLF    0E,W
02AE:  ANDLW  7F
02AF:  BCF    03.6
02B0:  MOVWF  3A
02B1:  BSF    03.6
02B2:  MOVF   0D,W
02B3:  BCF    03.6
02B4:  MOVWF  3B
02B5:  BSF    03.6
02B6:  MOVF   0F,W
02B7:  BCF    03.6
02B8:  MOVWF  3C
02B9:  MOVF   3A,W
02BA:  MOVWF  42
02BB:  CALL   253
02BC:  MOVF   3B,W
02BD:  BSF    03.6
02BE:  MOVWF  0D
02BF:  BCF    03.6
02C0:  MOVF   3C,W
02C1:  BSF    03.6
02C2:  MOVWF  0F
02C3:  INCF   0D,F
02C4:  BTFSC  03.2
02C5:  INCF   0F,F
02C6:  BCF    03.0
02C7:  BCF    03.6
02C8:  DECFSZ 39,F
02C9:  GOTO   274
02CA:  RETURN
02CB:  MOVF   3C,W
02CC:  CLRF   78
02CD:  SUBWF  3B,W
02CE:  BTFSC  03.0
02CF:  GOTO   2D3
02D0:  MOVF   3B,W
02D1:  MOVWF  77
02D2:  GOTO   2DF
02D3:  CLRF   77
02D4:  MOVLW  08
02D5:  MOVWF  3D
02D6:  RLF    3B,F
02D7:  RLF    77,F
02D8:  MOVF   3C,W
02D9:  SUBWF  77,W
02DA:  BTFSC  03.0
02DB:  MOVWF  77
02DC:  RLF    78,F
02DD:  DECFSZ 3D,F
02DE:  GOTO   2D6
02DF:  RETURN
02E0:  MOVF   78,W
02E1:  MOVF   39,W
02E2:  MOVWF  3B
02E3:  MOVLW  64
02E4:  MOVWF  3C
02E5:  CALL   2CB
02E6:  MOVF   77,W
02E7:  MOVWF  39
02E8:  MOVF   78,W
02E9:  MOVLW  30
02EA:  BTFSS  03.2
02EB:  GOTO   2F3
02EC:  BTFSS  3A.1
02ED:  GOTO   2FA
02EE:  BTFSC  3A.3
02EF:  GOTO   2FA
02F0:  BTFSC  3A.4
02F1:  MOVLW  20
02F2:  GOTO   2F6
02F3:  BCF    3A.3
02F4:  BCF    3A.4
02F5:  BSF    3A.0
02F6:  ADDWF  78,F
02F7:  MOVF   78,W
02F8:  MOVWF  42
02F9:  CALL   253
02FA:  MOVF   39,W
02FB:  MOVWF  3B
02FC:  MOVLW  0A
02FD:  MOVWF  3C
02FE:  CALL   2CB
02FF:  MOVF   77,W
0300:  MOVWF  39
0301:  MOVF   78,W
0302:  MOVLW  30
0303:  BTFSS  03.2
0304:  GOTO   30B
0305:  BTFSC  3A.3
0306:  GOTO   30F
0307:  BTFSS  3A.0
0308:  GOTO   30F
0309:  BTFSC  3A.4
030A:  MOVLW  20
030B:  ADDWF  78,F
030C:  MOVF   78,W
030D:  MOVWF  42
030E:  CALL   253
030F:  MOVLW  30
0310:  ADDWF  39,F
0311:  MOVF   39,W
0312:  MOVWF  42
0313:  CALL   253
0314:  RETURN
*
03B3:  CLRF   41
03B4:  MOVF   04,W
03B5:  MOVWF  40
03B6:  BCF    41.0
03B7:  BTFSC  03.7
03B8:  BSF    41.0
03B9:  SWAPF  3A,W
03BA:  IORLW  F0
03BB:  MOVWF  3C
03BC:  ADDWF  3C,F
03BD:  ADDLW  E2
03BE:  MOVWF  3D
03BF:  ADDLW  32
03C0:  MOVWF  3F
03C1:  MOVF   3A,W
03C2:  ANDLW  0F
03C3:  ADDWF  3D,F
03C4:  ADDWF  3D,F
03C5:  ADDWF  3F,F
03C6:  ADDLW  E9
03C7:  MOVWF  3E
03C8:  ADDWF  3E,F
03C9:  ADDWF  3E,F
03CA:  SWAPF  39,W
03CB:  ANDLW  0F
03CC:  ADDWF  3E,F
03CD:  ADDWF  3F,F
03CE:  RLF    3E,F
03CF:  RLF    3F,F
03D0:  COMF   3F,F
03D1:  RLF    3F,F
03D2:  MOVF   39,W
03D3:  ANDLW  0F
03D4:  ADDWF  3F,F
03D5:  RLF    3C,F
03D6:  MOVLW  07
03D7:  MOVWF  3B
03D8:  MOVLW  0A
03D9:  ADDWF  3F,F
03DA:  DECF   3E,F
03DB:  BTFSS  03.0
03DC:  GOTO   3D9
03DD:  ADDWF  3E,F
03DE:  DECF   3D,F
03DF:  BTFSS  03.0
03E0:  GOTO   3DD
03E1:  ADDWF  3D,F
03E2:  DECF   3C,F
03E3:  BTFSS  03.0
03E4:  GOTO   3E1
03E5:  ADDWF  3C,F
03E6:  DECF   3B,F
03E7:  BTFSS  03.0
03E8:  GOTO   3E5
03E9:  MOVLW  3B
03EA:  MOVWF  04
03EB:  BCF    03.7
03EC:  MOVLW  07
03ED:  ANDWF  40,W
03EE:  BCF    40.6
03EF:  ADDWF  04,F
03F0:  MOVLW  3F
03F1:  SUBWF  04,W
03F2:  BTFSC  03.2
03F3:  BSF    40.6
03F4:  MOVF   00,W
03F5:  MOVWF  77
03F6:  BTFSS  03.2
03F7:  GOTO   400
03F8:  BTFSC  40.6
03F9:  GOTO   400
03FA:  BTFSC  40.4
03FB:  GOTO   412
03FC:  BTFSC  40.3
03FD:  GOTO   400
03FE:  MOVLW  20
03FF:  GOTO   403
0400:  BSF    40.3
0401:  BCF    40.4
0402:  MOVLW  30
0403:  ADDWF  77,F
0404:  CLRF   3A
0405:  MOVF   04,W
0406:  MOVWF  39
0407:  BCF    3A.0
0408:  BTFSC  03.7
0409:  BSF    3A.0
040A:  MOVF   77,W
040B:  MOVWF  42
040C:  CALL   253
040D:  MOVF   39,W
040E:  MOVWF  04
040F:  BCF    03.7
0410:  BTFSC  3A.0
0411:  BSF    03.7
0412:  INCF   04,F
0413:  BTFSS  40.6
0414:  GOTO   3F0
0415:  RETURN
.................... 
.................... #list
.................... 
.................... #device adc = 10
.................... #fuses hs
.................... #use delay(clock=20M)
*
01FD:  MOVLW  03
01FE:  SUBWF  43,F
01FF:  BTFSS  03.0
0200:  GOTO   20B
0201:  MOVLW  43
0202:  MOVWF  04
0203:  BCF    03.7
0204:  MOVF   00,W
0205:  BTFSC  03.2
0206:  GOTO   20B
0207:  GOTO   209
0208:  GOTO   209
0209:  DECFSZ 00,F
020A:  GOTO   208
020B:  RETURN
*
022D:  MOVLW  39
022E:  MOVWF  04
022F:  BCF    03.7
0230:  MOVF   00,W
0231:  BTFSC  03.2
0232:  GOTO   240
0233:  MOVLW  06
0234:  MOVWF  78
0235:  CLRF   77
0236:  DECFSZ 77,F
0237:  GOTO   236
0238:  DECFSZ 78,F
0239:  GOTO   235
023A:  MOVLW  7B
023B:  MOVWF  77
023C:  DECFSZ 77,F
023D:  GOTO   23C
023E:  DECFSZ 00,F
023F:  GOTO   233
0240:  RETURN
.................... 
.................... #define lcd_rs       pin_c5
.................... #define lcd_rw       pin_c6
.................... #define lcd_e        pin_c7
.................... #define output_lcd   output_d
.................... 
.................... #include<tv_lcd.c>
.................... void lcd_command(int8 a)
.................... {
....................       output_low(lcd_rw);
*
020C:  BCF    2B.6
020D:  MOVF   2B,W
020E:  BSF    03.5
020F:  MOVWF  07
0210:  BCF    03.5
0211:  BCF    07.6
....................       output_low(lcd_rs);
0212:  BCF    2B.5
0213:  MOVF   2B,W
0214:  BSF    03.5
0215:  MOVWF  07
0216:  BCF    03.5
0217:  BCF    07.5
....................       output_lcd(a);
0218:  BSF    03.5
0219:  CLRF   08
021A:  BCF    03.5
021B:  MOVF   39,W
021C:  MOVWF  08
....................       output_high(lcd_e);
021D:  BCF    2B.7
021E:  MOVF   2B,W
021F:  BSF    03.5
0220:  MOVWF  07
0221:  BCF    03.5
0222:  BSF    07.7
....................       output_low(lcd_e);
0223:  BCF    2B.7
0224:  MOVF   2B,W
0225:  BSF    03.5
0226:  MOVWF  07
0227:  BCF    03.5
0228:  BCF    07.7
....................       delay_us(200);
0229:  MOVLW  C8
022A:  MOVWF  43
022B:  CALL   1FD
022C:  RETURN
.................... }
.................... void lcd_data(int8 a)
.................... {
....................       output_low(lcd_rw);
*
0253:  BCF    2B.6
0254:  MOVF   2B,W
0255:  BSF    03.5
0256:  MOVWF  07
0257:  BCF    03.5
0258:  BCF    07.6
....................       output_high(lcd_rs);
0259:  BCF    2B.5
025A:  MOVF   2B,W
025B:  BSF    03.5
025C:  MOVWF  07
025D:  BCF    03.5
025E:  BSF    07.5
....................       output_lcd(a);
025F:  BSF    03.5
0260:  CLRF   08
0261:  BCF    03.5
0262:  MOVF   42,W
0263:  MOVWF  08
....................       output_high(lcd_e);
0264:  BCF    2B.7
0265:  MOVF   2B,W
0266:  BSF    03.5
0267:  MOVWF  07
0268:  BCF    03.5
0269:  BSF    07.7
....................       output_low(lcd_e);
026A:  BCF    2B.7
026B:  MOVF   2B,W
026C:  BSF    03.5
026D:  MOVWF  07
026E:  BCF    03.5
026F:  BCF    07.7
....................       delay_us(200);
0270:  MOVLW  C8
0271:  MOVWF  43
0272:  CALL   1FD
0273:  RETURN
.................... }
.................... void lcd_setup()
.................... {     
....................       lcd_command(0x38); delay_ms(5);
*
0241:  MOVLW  38
0242:  MOVWF  39
0243:  CALL   20C
0244:  MOVLW  05
0245:  MOVWF  39
0246:  CALL   22D
....................       lcd_command(0x0c); 
0247:  MOVLW  0C
0248:  MOVWF  39
0249:  CALL   20C
....................       lcd_command(0x01); delay_ms(2);
024A:  MOVLW  01
024B:  MOVWF  39
024C:  CALL   20C
024D:  MOVLW  02
024E:  MOVWF  39
024F:  CALL   22D
0250:  BCF    0A.3
0251:  BCF    0A.4
0252:  GOTO   484 (RETURN)
.................... }
.................... 
.................... unsigned int8 kq,bdn1,giay1=0,phut1=0,gio1=0;
.................... unsigned int8 bdn2,giay2=0,phut2=0,gio2=0;
.................... unsigned int16 kqadc1,kqadc2;
.................... void demsp(){
....................    kq=get_timer0();
*
0315:  MOVF   01,W
0316:  MOVWF  2C
....................    if(kq>12) set_timer0(1);
0317:  MOVF   2C,W
0318:  SUBLW  0C
0319:  BTFSC  03.0
031A:  GOTO   31D
031B:  MOVLW  01
031C:  MOVWF  01
....................    lcd_command(0x80);
031D:  MOVLW  80
031E:  MOVWF  39
031F:  CALL   20C
....................    printf(lcd_data,"SO SP: %02u CAI",kq);
0320:  MOVLW  63
0321:  BSF    03.6
0322:  MOVWF  0D
0323:  MOVLW  00
0324:  MOVWF  0F
0325:  BCF    03.0
0326:  MOVLW  07
0327:  BCF    03.6
0328:  MOVWF  39
0329:  CALL   274
032A:  MOVF   2C,W
032B:  MOVWF  39
032C:  MOVLW  01
032D:  MOVWF  3A
032E:  CALL   2E0
032F:  MOVLW  68
0330:  BSF    03.6
0331:  MOVWF  0D
0332:  MOVLW  00
0333:  MOVWF  0F
0334:  BSF    03.0
0335:  MOVLW  04
0336:  BCF    03.6
0337:  MOVWF  39
0338:  CALL   274
0339:  BCF    0A.3
033A:  BCF    0A.4
033B:  GOTO   4B9 (RETURN)
.................... }
.................... void demtimer1()
.................... {
....................    if(bdn1==10){
033C:  MOVF   2D,W
033D:  SUBLW  0A
033E:  BTFSS  03.2
033F:  GOTO   352
....................       giay1++;
0340:  INCF   2E,F
....................       bdn1=0;
0341:  CLRF   2D
....................       if(giay1>59){
0342:  MOVF   2E,W
0343:  SUBLW  3B
0344:  BTFSC  03.0
0345:  GOTO   352
....................          giay1=0;
0346:  CLRF   2E
....................          phut1++;
0347:  INCF   2F,F
....................          if(phut1>59){
0348:  MOVF   2F,W
0349:  SUBLW  3B
034A:  BTFSC  03.0
034B:  GOTO   352
....................             phut1=0;
034C:  CLRF   2F
....................             gio1++;
034D:  INCF   30,F
....................             if(gio1>23)gio1=0;
034E:  MOVF   30,W
034F:  SUBLW  17
0350:  BTFSS  03.0
0351:  CLRF   30
....................          }
....................       }
....................    }
....................    lcd_command(0xc0);
0352:  MOVLW  C0
0353:  MOVWF  39
0354:  CALL   20C
....................    printf(lcd_data,"THOI GIAN: %02u:%02u:%02u",gio1,phut1,giay1);
0355:  MOVLW  6B
0356:  BSF    03.6
0357:  MOVWF  0D
0358:  MOVLW  00
0359:  MOVWF  0F
035A:  BCF    03.0
035B:  MOVLW  0B
035C:  BCF    03.6
035D:  MOVWF  39
035E:  CALL   274
035F:  MOVF   30,W
0360:  MOVWF  39
0361:  MOVLW  01
0362:  MOVWF  3A
0363:  CALL   2E0
0364:  MOVLW  3A
0365:  MOVWF  42
0366:  CALL   253
0367:  MOVF   2F,W
0368:  MOVWF  39
0369:  MOVLW  01
036A:  MOVWF  3A
036B:  CALL   2E0
036C:  MOVLW  3A
036D:  MOVWF  42
036E:  CALL   253
036F:  MOVF   2E,W
0370:  MOVWF  39
0371:  MOVLW  01
0372:  MOVWF  3A
0373:  CALL   2E0
0374:  BCF    0A.3
0375:  BCF    0A.4
0376:  GOTO   4BA (RETURN)
.................... }
.................... void demtimer2()
.................... {
....................    if(bdn2>=200){
0377:  MOVF   31,W
0378:  SUBLW  C7
0379:  BTFSC  03.0
037A:  GOTO   38E
....................       giay2++;
037B:  INCF   32,F
....................       bdn2=bdn2-200;
037C:  MOVLW  C8
037D:  SUBWF  31,F
....................       if(giay2>59){
037E:  MOVF   32,W
037F:  SUBLW  3B
0380:  BTFSC  03.0
0381:  GOTO   38E
....................          giay2=0;
0382:  CLRF   32
....................          phut2++;
0383:  INCF   33,F
....................          if(phut2>59){
0384:  MOVF   33,W
0385:  SUBLW  3B
0386:  BTFSC  03.0
0387:  GOTO   38E
....................             phut2=0;
0388:  CLRF   33
....................             gio2++;
0389:  INCF   34,F
....................             if(gio2>23)gio2=0;
038A:  MOVF   34,W
038B:  SUBLW  17
038C:  BTFSS  03.0
038D:  CLRF   34
....................          }
....................       }
....................    }
....................    lcd_command(0x94);
038E:  MOVLW  94
038F:  MOVWF  39
0390:  CALL   20C
....................    printf(lcd_data,"THOI GIAN: %02u:%02u:%02u",gio2,phut2,giay2);
0391:  MOVLW  78
0392:  BSF    03.6
0393:  MOVWF  0D
0394:  MOVLW  00
0395:  MOVWF  0F
0396:  BCF    03.0
0397:  MOVLW  0B
0398:  BCF    03.6
0399:  MOVWF  39
039A:  CALL   274
039B:  MOVF   34,W
039C:  MOVWF  39
039D:  MOVLW  01
039E:  MOVWF  3A
039F:  CALL   2E0
03A0:  MOVLW  3A
03A1:  MOVWF  42
03A2:  CALL   253
03A3:  MOVF   33,W
03A4:  MOVWF  39
03A5:  MOVLW  01
03A6:  MOVWF  3A
03A7:  CALL   2E0
03A8:  MOVLW  3A
03A9:  MOVWF  42
03AA:  CALL   253
03AB:  MOVF   32,W
03AC:  MOVWF  39
03AD:  MOVLW  01
03AE:  MOVWF  3A
03AF:  CALL   2E0
03B0:  BCF    0A.3
03B1:  BCF    0A.4
03B2:  GOTO   4BB (RETURN)
.................... }
.................... void lm35()
.................... {
....................    set_adc_channel(5);
*
0416:  MOVLW  14
0417:  MOVWF  78
0418:  MOVF   1F,W
0419:  ANDLW  C3
041A:  IORWF  78,W
041B:  MOVWF  1F
....................    delay_ms(1);
041C:  MOVLW  01
041D:  MOVWF  39
041E:  CALL   22D
....................    read_adc(ADC_START_ONLY);
041F:  BSF    1F.1
....................    lcd_command(0xd4);
0420:  MOVLW  D4
0421:  MOVWF  39
0422:  CALL   20C
....................    printf(lcd_data,"%02lu C",kqadc1);
0423:  MOVLW  0B
0424:  MOVWF  04
0425:  MOVF   36,W
0426:  MOVWF  3A
0427:  MOVF   35,W
0428:  MOVWF  39
0429:  CALL   3B3
042A:  MOVLW  20
042B:  MOVWF  42
042C:  CALL   253
042D:  MOVLW  43
042E:  MOVWF  42
042F:  CALL   253
....................    lcd_command(0xd4+2);
0430:  MOVLW  D6
0431:  MOVWF  39
0432:  CALL   20C
....................    lcd_data(0xdf);
0433:  MOVLW  DF
0434:  MOVWF  42
0435:  CALL   253
....................    set_adc_channel(6);
0436:  MOVLW  18
0437:  MOVWF  78
0438:  MOVF   1F,W
0439:  ANDLW  C3
043A:  IORWF  78,W
043B:  MOVWF  1F
....................    delay_ms(1);
043C:  MOVLW  01
043D:  MOVWF  39
043E:  CALL   22D
....................    read_adc(ADC_START_ONLY);
043F:  BSF    1F.1
....................    lcd_command(0xd4+16);
0440:  MOVLW  E4
0441:  MOVWF  39
0442:  CALL   20C
....................    printf(lcd_data,"%02lu C",kqadc2);
0443:  MOVLW  0B
0444:  MOVWF  04
0445:  MOVF   38,W
0446:  MOVWF  3A
0447:  MOVF   37,W
0448:  MOVWF  39
0449:  CALL   3B3
044A:  MOVLW  20
044B:  MOVWF  42
044C:  CALL   253
044D:  MOVLW  43
044E:  MOVWF  42
044F:  CALL   253
....................    lcd_command(0xd4+18);
0450:  MOVLW  E6
0451:  MOVWF  39
0452:  CALL   20C
....................    lcd_data(0xdf);
0453:  MOVLW  DF
0454:  MOVWF  42
0455:  CALL   253
0456:  BCF    0A.3
0457:  BCF    0A.4
0458:  GOTO   4BC (RETURN)
.................... }
.................... void main()
0459:  MOVF   03,W
045A:  ANDLW  1F
045B:  MOVWF  03
045C:  MOVLW  FF
045D:  MOVWF  2B
045E:  CLRF   2E
045F:  CLRF   2F
0460:  CLRF   30
0461:  CLRF   32
0462:  CLRF   33
0463:  CLRF   34
0464:  BSF    03.5
0465:  BSF    03.6
0466:  MOVF   09,W
0467:  ANDLW  C0
0468:  MOVWF  09
0469:  BCF    03.6
046A:  BCF    1F.4
046B:  BCF    1F.5
046C:  MOVLW  00
046D:  BSF    03.6
046E:  MOVWF  08
046F:  BCF    03.5
0470:  CLRF   07
0471:  CLRF   08
0472:  CLRF   09
0473:  BCF    03.7
.................... {  
....................    set_tris_a(0xff);
0474:  MOVLW  FF
0475:  BSF    03.5
0476:  BCF    03.6
0477:  MOVWF  05
....................    set_tris_c(0);
0478:  MOVLW  00
0479:  MOVWF  07
047A:  BCF    03.5
047B:  MOVWF  2B
....................    set_tris_d(0);
047C:  BSF    03.5
047D:  MOVWF  08
....................    set_tris_e(0xff);
047E:  BSF    09.0
047F:  BSF    09.1
0480:  BSF    09.2
0481:  BSF    09.3
....................    lcd_setup();
0482:  BCF    03.5
0483:  GOTO   241
....................    setup_timer_0(T0_EXT_H_TO_L);
0484:  BSF    03.5
0485:  MOVF   01,W
0486:  ANDLW  C0
0487:  IORLW  30
0488:  MOVWF  01
....................    set_timer0(0);
0489:  BCF    03.5
048A:  CLRF   01
....................    setup_timer_1(T1_INTERNAL|T1_DIV_BY_8);
048B:  MOVLW  35
048C:  MOVWF  10
....................    set_timer1(3036);
048D:  CLRF   0E
048E:  MOVLW  0B
048F:  MOVWF  0F
0490:  MOVLW  DC
0491:  MOVWF  0E
0492:  NOP
....................    enable_interrupts(INT_TIMER1);
0493:  BSF    03.5
0494:  BSF    0C.0
....................    setup_timer_2(T2_DIV_BY_16,98,16);
0495:  MOVLW  78
0496:  MOVWF  78
0497:  IORLW  06
0498:  BCF    03.5
0499:  MOVWF  12
049A:  MOVLW  62
049B:  BSF    03.5
049C:  MOVWF  12
....................    set_timer2(0);
049D:  BCF    03.5
049E:  CLRF   11
....................    enable_interrupts(INT_TIMER2);
049F:  BSF    03.5
04A0:  BSF    0C.1
....................    setup_adc(ADC_CLOCK_DIV_32);
04A1:  BCF    03.5
04A2:  BCF    1F.6
04A3:  BSF    1F.7
04A4:  BSF    03.5
04A5:  BSF    1F.7
04A6:  BCF    03.5
04A7:  BSF    1F.0
....................    setup_adc_ports(san5|san6|vss_vdd);
04A8:  BSF    03.5
04A9:  BSF    03.6
04AA:  MOVF   09,W
04AB:  ANDLW  C0
04AC:  MOVWF  09
04AD:  BCF    03.6
04AE:  BCF    1F.4
04AF:  BCF    1F.5
04B0:  MOVLW  60
04B1:  BSF    03.6
04B2:  MOVWF  08
....................    enable_interrupts(INT_AD);
04B3:  BCF    03.6
04B4:  BSF    0C.6
....................    enable_interrupts(GLOBAL);
04B5:  MOVLW  C0
04B6:  BCF    03.5
04B7:  IORWF  0B,F
....................    while(true)
....................    {
....................       demsp();
04B8:  GOTO   315
....................       demtimer1();
04B9:  GOTO   33C
....................       demtimer2();
04BA:  GOTO   377
....................       lm35();
04BB:  GOTO   416
04BC:  GOTO   4B8
....................    }
.................... }
.................... #INT_TIMER1
.................... void ngattimer1(){
04BD:  SLEEP
....................    set_timer1(3036);
*
0085:  CLRF   0E
0086:  MOVLW  0B
0087:  MOVWF  0F
0088:  MOVLW  DC
0089:  MOVWF  0E
008A:  NOP
....................    bdn1++;
008B:  INCF   2D,F
.................... }
008C:  BCF    0C.0
008D:  BCF    0A.3
008E:  BCF    0A.4
008F:  GOTO   039
.................... #INT_TIMER2
.................... void ngattimer2(){
....................    bdn2++;
0090:  INCF   31,F
.................... }
0091:  BCF    0C.1
0092:  BCF    0A.3
0093:  BCF    0A.4
0094:  GOTO   039
.................... #INT_AD
.................... void ngatadc()
.................... {
....................    kqadc1=read_adc(ADC_READ_ONLY)/2.046;
*
019B:  BTFSC  1F.1
019C:  GOTO   19B
019D:  MOVF   1E,W
019E:  MOVWF  79
019F:  BSF    03.5
01A0:  MOVF   1E,W
01A1:  MOVWF  78
01A2:  MOVF   79,W
01A3:  BCF    03.5
01A4:  MOVWF  45
01A5:  MOVF   78,W
01A6:  MOVWF  44
01A7:  MOVF   45,W
01A8:  MOVWF  47
01A9:  MOVF   78,W
01AA:  MOVWF  46
01AB:  CALL   095
01AC:  MOVF   7A,W
01AD:  MOVWF  49
01AE:  MOVF   79,W
01AF:  MOVWF  48
01B0:  MOVF   78,W
01B1:  MOVWF  47
01B2:  MOVF   77,W
01B3:  MOVWF  46
01B4:  MOVLW  AA
01B5:  MOVWF  4D
01B6:  MOVLW  F1
01B7:  MOVWF  4C
01B8:  MOVLW  02
01B9:  MOVWF  4B
01BA:  MOVLW  80
01BB:  MOVWF  4A
01BC:  CALL   0B2
01BD:  MOVF   7A,W
01BE:  MOVWF  47
01BF:  MOVF   79,W
01C0:  MOVWF  46
01C1:  MOVF   78,W
01C2:  MOVWF  45
01C3:  MOVF   77,W
01C4:  MOVWF  44
01C5:  CALL   17C
01C6:  MOVF   79,W
01C7:  MOVWF  36
01C8:  MOVF   78,W
01C9:  MOVWF  35
....................    kqadc2=read_adc(ADC_READ_ONLY)/2.046;
01CA:  BTFSC  1F.1
01CB:  GOTO   1CA
01CC:  MOVF   1E,W
01CD:  MOVWF  79
01CE:  BSF    03.5
01CF:  MOVF   1E,W
01D0:  MOVWF  78
01D1:  MOVF   79,W
01D2:  BCF    03.5
01D3:  MOVWF  45
01D4:  MOVF   78,W
01D5:  MOVWF  44
01D6:  MOVF   45,W
01D7:  MOVWF  47
01D8:  MOVF   78,W
01D9:  MOVWF  46
01DA:  CALL   095
01DB:  MOVF   7A,W
01DC:  MOVWF  49
01DD:  MOVF   79,W
01DE:  MOVWF  48
01DF:  MOVF   78,W
01E0:  MOVWF  47
01E1:  MOVF   77,W
01E2:  MOVWF  46
01E3:  MOVLW  AA
01E4:  MOVWF  4D
01E5:  MOVLW  F1
01E6:  MOVWF  4C
01E7:  MOVLW  02
01E8:  MOVWF  4B
01E9:  MOVLW  80
01EA:  MOVWF  4A
01EB:  CALL   0B2
01EC:  MOVF   7A,W
01ED:  MOVWF  47
01EE:  MOVF   79,W
01EF:  MOVWF  46
01F0:  MOVF   78,W
01F1:  MOVWF  45
01F2:  MOVF   77,W
01F3:  MOVWF  44
01F4:  CALL   17C
01F5:  MOVF   79,W
01F6:  MOVWF  38
01F7:  MOVF   78,W
01F8:  MOVWF  37
01F9:  BCF    0C.6
01FA:  BCF    0A.3
01FB:  BCF    0A.4
01FC:  GOTO   039
.................... }

Configuration Fuses:
   Word  1: 2FE2   HS NOWDT PUT MCLR NOPROTECT NOCPD BROWNOUT IESO FCMEN NOLVP NODEBUG
   Word  2: 3FFF   BORV40 NOWRT
