CCS PCM C Compiler, Version 5.112, 43599               08-Nov-23 22:17

               Filename:   C:\Users\defaultuser0.LAPTOP-POTNR7PE\OneDrive - hcmute.edu.vn\Desktop\VXL\BAI 9\BAI 9.lst

               ROM used:   1151 words (14%)
                           Largest free fragment is 2048
               RAM used:   19 (5%) at main() level
                           33 (9%) worst case
               Stack used: 3 locations
               Stack size: 8

*
0000:  MOVLW  03
0001:  MOVWF  0A
0002:  GOTO   3F8
0003:  NOP
.................... #include<16f887.h>
.................... //////////// Standard Header file for the PIC16F887 device ////////////////
.................... ///////////////////////////////////////////////////////////////////////////
.................... ////        (C) Copyright 1996, 2020 Custom Computer Services          ////
.................... //// This source code may only be used by licensed users of the CCS C  ////
.................... //// compiler.  This source code may only be distributed to other      ////
.................... //// licensed users of the CCS C compiler.  No other use, reproduction ////
.................... //// or distribution is permitted without written permission.          ////
.................... //// Derivative programs created using this software in object code    ////
.................... //// form are not restricted in any way.                               ////
.................... ///////////////////////////////////////////////////////////////////////////
.................... #device PIC16F887
0004:  DATA D3,27
0005:  DATA A0,29
0006:  DATA 41,27
0007:  DATA 20,28
0008:  DATA C8,20
0009:  DATA 4D,1D
000A:  DATA A0,12
000B:  DATA 30,19
000C:  DATA 75,10
000D:  DATA C3,20
000E:  DATA 49,00
000F:  DATA 54,24
0010:  DATA CF,24
0011:  DATA A0,23
0012:  DATA C9,20
0013:  DATA 4E,1D
0014:  DATA A0,12
0015:  DATA 30,19
0016:  DATA 75,1D
0017:  DATA 25,18
0018:  DATA B2,3A
0019:  DATA BA,12
001A:  DATA 30,19
001B:  DATA 75,00
001C:  DATA C4,20
001D:  DATA CE,23
001E:  DATA 20,22
001F:  DATA 55,27
0020:  DATA 47,00
0021:  DATA C4,20
0022:  DATA CE,23
0023:  DATA A0,21
0024:  DATA C8,20
0025:  DATA 59,00
0026:  DATA C4,20
0027:  DATA CE,23
0028:  DATA 20,22
0029:  DATA 55,27
002A:  DATA 47,00
*
00A2:  MOVF   0B,W
00A3:  MOVWF  2D
00A4:  BCF    0B.7
00A5:  BSF    03.5
00A6:  BSF    03.6
00A7:  BSF    0C.7
00A8:  BSF    0C.0
00A9:  NOP
00AA:  NOP
00AB:  BCF    03.5
00AC:  BCF    03.6
00AD:  BTFSC  2D.7
00AE:  BSF    0B.7
00AF:  BSF    03.6
00B0:  MOVF   0C,W
00B1:  ANDLW  7F
00B2:  BTFSC  03.2
00B3:  GOTO   0F6
00B4:  BCF    03.6
00B5:  MOVWF  2D
00B6:  BSF    03.6
00B7:  MOVF   0D,W
00B8:  BCF    03.6
00B9:  MOVWF  2E
00BA:  BSF    03.6
00BB:  MOVF   0F,W
00BC:  BCF    03.6
00BD:  MOVWF  2F
00BE:  MOVF   2D,W
00BF:  MOVWF  36
00C0:  CALL   081
00C1:  MOVF   2E,W
00C2:  BSF    03.6
00C3:  MOVWF  0D
00C4:  BCF    03.6
00C5:  MOVF   2F,W
00C6:  BSF    03.6
00C7:  MOVWF  0F
00C8:  BCF    03.6
00C9:  MOVF   0B,W
00CA:  MOVWF  30
00CB:  BCF    0B.7
00CC:  BSF    03.5
00CD:  BSF    03.6
00CE:  BSF    0C.7
00CF:  BSF    0C.0
00D0:  NOP
00D1:  NOP
00D2:  BCF    03.5
00D3:  BCF    03.6
00D4:  BTFSC  30.7
00D5:  BSF    0B.7
00D6:  BSF    03.6
00D7:  RLF    0C,W
00D8:  RLF    0E,W
00D9:  ANDLW  7F
00DA:  BTFSC  03.2
00DB:  GOTO   0F6
00DC:  BCF    03.6
00DD:  MOVWF  2D
00DE:  BSF    03.6
00DF:  MOVF   0D,W
00E0:  BCF    03.6
00E1:  MOVWF  2E
00E2:  BSF    03.6
00E3:  MOVF   0F,W
00E4:  BCF    03.6
00E5:  MOVWF  2F
00E6:  MOVF   2D,W
00E7:  MOVWF  36
00E8:  CALL   081
00E9:  MOVF   2E,W
00EA:  BSF    03.6
00EB:  MOVWF  0D
00EC:  BCF    03.6
00ED:  MOVF   2F,W
00EE:  BSF    03.6
00EF:  MOVWF  0F
00F0:  INCF   0D,F
00F1:  BTFSC  03.2
00F2:  INCF   0F,F
00F3:  BCF    03.6
00F4:  GOTO   0A2
00F5:  BSF    03.6
00F6:  BCF    03.6
00F7:  RETURN
00F8:  MOVF   0B,W
00F9:  MOVWF  2E
00FA:  BCF    0B.7
00FB:  BSF    03.5
00FC:  BSF    03.6
00FD:  BSF    0C.7
00FE:  BSF    0C.0
00FF:  NOP
0100:  NOP
0101:  BCF    03.5
0102:  BCF    03.6
0103:  BTFSC  2E.7
0104:  BSF    0B.7
0105:  BTFSC  03.0
0106:  GOTO   12F
0107:  BSF    03.6
0108:  MOVF   0C,W
0109:  ANDLW  7F
010A:  BCF    03.6
010B:  MOVWF  2E
010C:  BSF    03.6
010D:  MOVF   0D,W
010E:  BCF    03.6
010F:  MOVWF  2F
0110:  BSF    03.6
0111:  MOVF   0F,W
0112:  BCF    03.6
0113:  MOVWF  30
0114:  MOVF   2E,W
0115:  MOVWF  36
0116:  CALL   081
0117:  MOVF   2F,W
0118:  BSF    03.6
0119:  MOVWF  0D
011A:  BCF    03.6
011B:  MOVF   30,W
011C:  BSF    03.6
011D:  MOVWF  0F
011E:  BCF    03.6
011F:  MOVF   0B,W
0120:  MOVWF  31
0121:  BCF    0B.7
0122:  BSF    03.5
0123:  BSF    03.6
0124:  BSF    0C.7
0125:  BSF    0C.0
0126:  NOP
0127:  NOP
0128:  BCF    03.5
0129:  BCF    03.6
012A:  BTFSC  31.7
012B:  BSF    0B.7
012C:  DECFSZ 2D,F
012D:  GOTO   12F
012E:  GOTO   14E
012F:  BSF    03.6
0130:  RLF    0C,W
0131:  RLF    0E,W
0132:  ANDLW  7F
0133:  BCF    03.6
0134:  MOVWF  2E
0135:  BSF    03.6
0136:  MOVF   0D,W
0137:  BCF    03.6
0138:  MOVWF  2F
0139:  BSF    03.6
013A:  MOVF   0F,W
013B:  BCF    03.6
013C:  MOVWF  30
013D:  MOVF   2E,W
013E:  MOVWF  36
013F:  CALL   081
0140:  MOVF   2F,W
0141:  BSF    03.6
0142:  MOVWF  0D
0143:  BCF    03.6
0144:  MOVF   30,W
0145:  BSF    03.6
0146:  MOVWF  0F
0147:  INCF   0D,F
0148:  BTFSC  03.2
0149:  INCF   0F,F
014A:  BCF    03.0
014B:  BCF    03.6
014C:  DECFSZ 2D,F
014D:  GOTO   0F8
014E:  RETURN
014F:  MOVF   30,W
0150:  CLRF   78
0151:  SUBWF  2F,W
0152:  BTFSC  03.0
0153:  GOTO   157
0154:  MOVF   2F,W
0155:  MOVWF  77
0156:  GOTO   163
0157:  CLRF   77
0158:  MOVLW  08
0159:  MOVWF  31
015A:  RLF    2F,F
015B:  RLF    77,F
015C:  MOVF   30,W
015D:  SUBWF  77,W
015E:  BTFSC  03.0
015F:  MOVWF  77
0160:  RLF    78,F
0161:  DECFSZ 31,F
0162:  GOTO   15A
0163:  RETURN
0164:  MOVF   78,W
0165:  MOVF   2D,W
0166:  MOVWF  2F
0167:  MOVLW  64
0168:  MOVWF  30
0169:  CALL   14F
016A:  MOVF   77,W
016B:  MOVWF  2D
016C:  MOVF   78,W
016D:  MOVLW  30
016E:  BTFSS  03.2
016F:  GOTO   177
0170:  BTFSS  2E.1
0171:  GOTO   17E
0172:  BTFSC  2E.3
0173:  GOTO   17E
0174:  BTFSC  2E.4
0175:  MOVLW  20
0176:  GOTO   17A
0177:  BCF    2E.3
0178:  BCF    2E.4
0179:  BSF    2E.0
017A:  ADDWF  78,F
017B:  MOVF   78,W
017C:  MOVWF  36
017D:  CALL   081
017E:  MOVF   2D,W
017F:  MOVWF  2F
0180:  MOVLW  0A
0181:  MOVWF  30
0182:  CALL   14F
0183:  MOVF   77,W
0184:  MOVWF  2D
0185:  MOVF   78,W
0186:  MOVLW  30
0187:  BTFSS  03.2
0188:  GOTO   18F
0189:  BTFSC  2E.3
018A:  GOTO   193
018B:  BTFSS  2E.0
018C:  GOTO   193
018D:  BTFSC  2E.4
018E:  MOVLW  20
018F:  ADDWF  78,F
0190:  MOVF   78,W
0191:  MOVWF  36
0192:  CALL   081
0193:  MOVLW  30
0194:  ADDWF  2D,F
0195:  MOVF   2D,W
0196:  MOVWF  36
0197:  CALL   081
0198:  RETURN
*
020C:  MOVLW  8E
020D:  MOVWF  77
020E:  MOVF   2F,W
020F:  MOVWF  78
0210:  MOVF   2E,W
0211:  MOVWF  79
0212:  CLRF   7A
0213:  MOVF   78,F
0214:  BTFSS  03.2
0215:  GOTO   220
0216:  MOVF   79,W
0217:  MOVWF  78
0218:  CLRF   79
0219:  MOVLW  08
021A:  SUBWF  77,F
021B:  MOVF   78,F
021C:  BTFSS  03.2
021D:  GOTO   220
021E:  CLRF   77
021F:  GOTO   228
0220:  BCF    03.0
0221:  BTFSC  78.7
0222:  GOTO   227
0223:  RLF    79,F
0224:  RLF    78,F
0225:  DECF   77,F
0226:  GOTO   220
0227:  BCF    78.7
0228:  RETURN
0229:  MOVF   2E,W
022A:  BTFSC  03.2
022B:  GOTO   2EE
022C:  MOVWF  3A
022D:  MOVF   32,W
022E:  BTFSC  03.2
022F:  GOTO   2EE
0230:  SUBWF  3A,F
0231:  BTFSS  03.0
0232:  GOTO   238
0233:  MOVLW  7F
0234:  ADDWF  3A,F
0235:  BTFSC  03.0
0236:  GOTO   2EE
0237:  GOTO   23E
0238:  MOVLW  81
0239:  SUBWF  3A,F
023A:  BTFSS  03.0
023B:  GOTO   2EE
023C:  BTFSC  03.2
023D:  GOTO   2EE
023E:  MOVF   3A,W
023F:  MOVWF  77
0240:  CLRF   78
0241:  CLRF   79
0242:  CLRF   7A
0243:  CLRF   39
0244:  MOVF   2F,W
0245:  MOVWF  38
0246:  BSF    38.7
0247:  MOVF   30,W
0248:  MOVWF  37
0249:  MOVF   31,W
024A:  MOVWF  36
024B:  MOVLW  19
024C:  MOVWF  3A
024D:  MOVF   35,W
024E:  SUBWF  36,F
024F:  BTFSC  03.0
0250:  GOTO   261
0251:  MOVLW  01
0252:  SUBWF  37,F
0253:  BTFSC  03.0
0254:  GOTO   261
0255:  SUBWF  38,F
0256:  BTFSC  03.0
0257:  GOTO   261
0258:  SUBWF  39,F
0259:  BTFSC  03.0
025A:  GOTO   261
025B:  INCF   39,F
025C:  INCF   38,F
025D:  INCF   37,F
025E:  MOVF   35,W
025F:  ADDWF  36,F
0260:  GOTO   293
0261:  MOVF   34,W
0262:  SUBWF  37,F
0263:  BTFSC  03.0
0264:  GOTO   27C
0265:  MOVLW  01
0266:  SUBWF  38,F
0267:  BTFSC  03.0
0268:  GOTO   27C
0269:  SUBWF  39,F
026A:  BTFSC  03.0
026B:  GOTO   27C
026C:  INCF   39,F
026D:  INCF   38,F
026E:  MOVF   34,W
026F:  ADDWF  37,F
0270:  MOVF   35,W
0271:  ADDWF  36,F
0272:  BTFSS  03.0
0273:  GOTO   293
0274:  INCF   37,F
0275:  BTFSS  03.2
0276:  GOTO   293
0277:  INCF   38,F
0278:  BTFSS  03.2
0279:  GOTO   293
027A:  INCF   39,F
027B:  GOTO   293
027C:  MOVF   33,W
027D:  IORLW  80
027E:  SUBWF  38,F
027F:  BTFSC  03.0
0280:  GOTO   292
0281:  MOVLW  01
0282:  SUBWF  39,F
0283:  BTFSC  03.0
0284:  GOTO   292
0285:  INCF   39,F
0286:  MOVF   33,W
0287:  IORLW  80
0288:  ADDWF  38,F
0289:  MOVF   34,W
028A:  ADDWF  37,F
028B:  BTFSS  03.0
028C:  GOTO   270
028D:  INCF   38,F
028E:  BTFSS  03.2
028F:  GOTO   270
0290:  INCF   39,F
0291:  GOTO   270
0292:  BSF    7A.0
0293:  DECFSZ 3A,F
0294:  GOTO   296
0295:  GOTO   2A1
0296:  BCF    03.0
0297:  RLF    36,F
0298:  RLF    37,F
0299:  RLF    38,F
029A:  RLF    39,F
029B:  BCF    03.0
029C:  RLF    7A,F
029D:  RLF    79,F
029E:  RLF    78,F
029F:  RLF    3B,F
02A0:  GOTO   24D
02A1:  BTFSS  3B.0
02A2:  GOTO   2A9
02A3:  BCF    03.0
02A4:  RRF    78,F
02A5:  RRF    79,F
02A6:  RRF    7A,F
02A7:  RRF    3B,F
02A8:  GOTO   2AC
02A9:  DECF   77,F
02AA:  BTFSC  03.2
02AB:  GOTO   2EE
02AC:  BTFSC  3B.7
02AD:  GOTO   2D5
02AE:  BCF    03.0
02AF:  RLF    36,F
02B0:  RLF    37,F
02B1:  RLF    38,F
02B2:  RLF    39,F
02B3:  MOVF   35,W
02B4:  SUBWF  36,F
02B5:  BTFSC  03.0
02B6:  GOTO   2C1
02B7:  MOVLW  01
02B8:  SUBWF  37,F
02B9:  BTFSC  03.0
02BA:  GOTO   2C1
02BB:  SUBWF  38,F
02BC:  BTFSC  03.0
02BD:  GOTO   2C1
02BE:  SUBWF  39,F
02BF:  BTFSS  03.0
02C0:  GOTO   2E4
02C1:  MOVF   34,W
02C2:  SUBWF  37,F
02C3:  BTFSC  03.0
02C4:  GOTO   2CC
02C5:  MOVLW  01
02C6:  SUBWF  38,F
02C7:  BTFSC  03.0
02C8:  GOTO   2CC
02C9:  SUBWF  39,F
02CA:  BTFSS  03.0
02CB:  GOTO   2E4
02CC:  MOVF   33,W
02CD:  IORLW  80
02CE:  SUBWF  38,F
02CF:  BTFSC  03.0
02D0:  GOTO   2D5
02D1:  MOVLW  01
02D2:  SUBWF  39,F
02D3:  BTFSS  03.0
02D4:  GOTO   2E4
02D5:  INCF   7A,F
02D6:  BTFSS  03.2
02D7:  GOTO   2E4
02D8:  INCF   79,F
02D9:  BTFSS  03.2
02DA:  GOTO   2E4
02DB:  INCF   78,F
02DC:  BTFSS  03.2
02DD:  GOTO   2E4
02DE:  INCF   77,F
02DF:  BTFSC  03.2
02E0:  GOTO   2EE
02E1:  RRF    78,F
02E2:  RRF    79,F
02E3:  RRF    7A,F
02E4:  MOVF   2F,W
02E5:  MOVWF  3A
02E6:  MOVF   33,W
02E7:  XORWF  3A,F
02E8:  BTFSS  3A.7
02E9:  GOTO   2EC
02EA:  BSF    78.7
02EB:  GOTO   2F2
02EC:  BCF    78.7
02ED:  GOTO   2F2
02EE:  CLRF   77
02EF:  CLRF   78
02F0:  CLRF   79
02F1:  CLRF   7A
02F2:  RETURN
02F3:  MOVLW  8E
02F4:  MOVWF  77
02F5:  MOVF   2D,W
02F6:  SUBWF  77,F
02F7:  MOVF   2E,W
02F8:  MOVWF  79
02F9:  MOVF   2F,W
02FA:  MOVWF  78
02FB:  BSF    79.7
02FC:  MOVF   77,F
02FD:  BTFSC  03.2
02FE:  GOTO   30A
02FF:  BCF    03.0
0300:  MOVF   79,F
0301:  BTFSS  03.2
0302:  GOTO   306
0303:  MOVF   78,F
0304:  BTFSC  03.2
0305:  GOTO   30A
0306:  RRF    79,F
0307:  RRF    78,F
0308:  DECFSZ 77,F
0309:  GOTO   2FF
030A:  BTFSS  2E.7
030B:  GOTO   311
030C:  COMF   78,F
030D:  COMF   79,F
030E:  INCF   78,F
030F:  BTFSC  03.2
0310:  INCF   79,F
0311:  RETURN
0312:  CLRF   35
0313:  MOVF   04,W
0314:  MOVWF  34
0315:  BCF    35.0
0316:  BTFSC  03.7
0317:  BSF    35.0
0318:  SWAPF  2E,W
0319:  IORLW  F0
031A:  MOVWF  30
031B:  ADDWF  30,F
031C:  ADDLW  E2
031D:  MOVWF  31
031E:  ADDLW  32
031F:  MOVWF  33
0320:  MOVF   2E,W
0321:  ANDLW  0F
0322:  ADDWF  31,F
0323:  ADDWF  31,F
0324:  ADDWF  33,F
0325:  ADDLW  E9
0326:  MOVWF  32
0327:  ADDWF  32,F
0328:  ADDWF  32,F
0329:  SWAPF  2D,W
032A:  ANDLW  0F
032B:  ADDWF  32,F
032C:  ADDWF  33,F
032D:  RLF    32,F
032E:  RLF    33,F
032F:  COMF   33,F
0330:  RLF    33,F
0331:  MOVF   2D,W
0332:  ANDLW  0F
0333:  ADDWF  33,F
0334:  RLF    30,F
0335:  MOVLW  07
0336:  MOVWF  2F
0337:  MOVLW  0A
0338:  ADDWF  33,F
0339:  DECF   32,F
033A:  BTFSS  03.0
033B:  GOTO   338
033C:  ADDWF  32,F
033D:  DECF   31,F
033E:  BTFSS  03.0
033F:  GOTO   33C
0340:  ADDWF  31,F
0341:  DECF   30,F
0342:  BTFSS  03.0
0343:  GOTO   340
0344:  ADDWF  30,F
0345:  DECF   2F,F
0346:  BTFSS  03.0
0347:  GOTO   344
0348:  MOVLW  2F
0349:  MOVWF  04
034A:  BCF    03.7
034B:  MOVLW  07
034C:  ANDWF  34,W
034D:  BCF    34.6
034E:  ADDWF  04,F
034F:  MOVLW  33
0350:  SUBWF  04,W
0351:  BTFSC  03.2
0352:  BSF    34.6
0353:  MOVF   00,W
0354:  MOVWF  77
0355:  BTFSS  03.2
0356:  GOTO   35F
0357:  BTFSC  34.6
0358:  GOTO   35F
0359:  BTFSC  34.4
035A:  GOTO   371
035B:  BTFSC  34.3
035C:  GOTO   35F
035D:  MOVLW  20
035E:  GOTO   362
035F:  BSF    34.3
0360:  BCF    34.4
0361:  MOVLW  30
0362:  ADDWF  77,F
0363:  CLRF   2E
0364:  MOVF   04,W
0365:  MOVWF  2D
0366:  BCF    2E.0
0367:  BTFSC  03.7
0368:  BSF    2E.0
0369:  MOVF   77,W
036A:  MOVWF  36
036B:  CALL   081
036C:  MOVF   2D,W
036D:  MOVWF  04
036E:  BCF    03.7
036F:  BTFSC  2E.0
0370:  BSF    03.7
0371:  INCF   04,F
0372:  BTFSS  34.6
0373:  GOTO   34F
0374:  RETURN
.................... 
.................... #list
.................... 
.................... //!#device adc=10
.................... #fuses hs
.................... #use delay(clock=20M)
*
002B:  MOVLW  03
002C:  SUBWF  37,F
002D:  BTFSS  03.0
002E:  GOTO   039
002F:  MOVLW  37
0030:  MOVWF  04
0031:  BCF    03.7
0032:  MOVF   00,W
0033:  BTFSC  03.2
0034:  GOTO   039
0035:  GOTO   037
0036:  GOTO   037
0037:  DECFSZ 00,F
0038:  GOTO   036
0039:  RETURN
*
005B:  MOVLW  2D
005C:  MOVWF  04
005D:  BCF    03.7
005E:  MOVF   00,W
005F:  BTFSC  03.2
0060:  GOTO   06E
0061:  MOVLW  06
0062:  MOVWF  78
0063:  CLRF   77
0064:  DECFSZ 77,F
0065:  GOTO   064
0066:  DECFSZ 78,F
0067:  GOTO   063
0068:  MOVLW  7B
0069:  MOVWF  77
006A:  DECFSZ 77,F
006B:  GOTO   06A
006C:  DECFSZ 00,F
006D:  GOTO   061
006E:  RETURN
.................... 
.................... #define lcd_rs pin_c5
.................... #define lcd_rw pin_c6
.................... #define lcd_e  pin_c7
.................... #define output_lcd   output_d
.................... 
.................... #include<tv_lcd.c>
.................... void lcd_command(int8 a)
.................... {
....................       output_low(lcd_rw);
*
003A:  BCF    20.6
003B:  MOVF   20,W
003C:  BSF    03.5
003D:  MOVWF  07
003E:  BCF    03.5
003F:  BCF    07.6
....................       output_low(lcd_rs);
0040:  BCF    20.5
0041:  MOVF   20,W
0042:  BSF    03.5
0043:  MOVWF  07
0044:  BCF    03.5
0045:  BCF    07.5
....................       output_lcd(a);
0046:  BSF    03.5
0047:  CLRF   08
0048:  BCF    03.5
0049:  MOVF   2D,W
004A:  MOVWF  08
....................       output_high(lcd_e);
004B:  BCF    20.7
004C:  MOVF   20,W
004D:  BSF    03.5
004E:  MOVWF  07
004F:  BCF    03.5
0050:  BSF    07.7
....................       output_low(lcd_e);
0051:  BCF    20.7
0052:  MOVF   20,W
0053:  BSF    03.5
0054:  MOVWF  07
0055:  BCF    03.5
0056:  BCF    07.7
....................       delay_us(200);
0057:  MOVLW  C8
0058:  MOVWF  37
0059:  CALL   02B
005A:  RETURN
.................... }
.................... void lcd_data(int8 a)
.................... {
....................       output_low(lcd_rw);
*
0081:  BCF    20.6
0082:  MOVF   20,W
0083:  BSF    03.5
0084:  MOVWF  07
0085:  BCF    03.5
0086:  BCF    07.6
....................       output_high(lcd_rs);
0087:  BCF    20.5
0088:  MOVF   20,W
0089:  BSF    03.5
008A:  MOVWF  07
008B:  BCF    03.5
008C:  BSF    07.5
....................       output_lcd(a);
008D:  BSF    03.5
008E:  CLRF   08
008F:  BCF    03.5
0090:  MOVF   36,W
0091:  MOVWF  08
....................       output_high(lcd_e);
0092:  BCF    20.7
0093:  MOVF   20,W
0094:  BSF    03.5
0095:  MOVWF  07
0096:  BCF    03.5
0097:  BSF    07.7
....................       output_low(lcd_e);
0098:  BCF    20.7
0099:  MOVF   20,W
009A:  BSF    03.5
009B:  MOVWF  07
009C:  BCF    03.5
009D:  BCF    07.7
....................       delay_us(200);
009E:  MOVLW  C8
009F:  MOVWF  37
00A0:  CALL   02B
00A1:  RETURN
.................... }
.................... void lcd_setup()
.................... {     
....................       lcd_command(0x38); delay_ms(5);
*
006F:  MOVLW  38
0070:  MOVWF  2D
0071:  CALL   03A
0072:  MOVLW  05
0073:  MOVWF  2D
0074:  CALL   05B
....................       lcd_command(0x0c); 
0075:  MOVLW  0C
0076:  MOVWF  2D
0077:  CALL   03A
....................       lcd_command(0x01); delay_ms(2);
0078:  MOVLW  01
0079:  MOVWF  2D
007A:  CALL   03A
007B:  MOVLW  02
007C:  MOVWF  2D
007D:  CALL   05B
007E:  BCF    0A.3
007F:  BCF    0A.4
0080:  GOTO   422 (RETURN)
.................... }
.................... 
.................... 
.................... #bit t0if = 0x0b.2
.................... unsigned int8 kq,bdn,gio=0,phut=0,giay=0;
.................... unsigned int1 ttdem=0;
.................... unsigned int16 kqadc1,kqadc2;
.................... void demsp(){
....................    kq=get_timer1();
*
0199:  MOVF   0F,W
019A:  MOVWF  7A
019B:  MOVF   0E,W
019C:  MOVWF  77
019D:  MOVF   0F,W
019E:  SUBWF  7A,W
019F:  BTFSS  03.2
01A0:  GOTO   199
01A1:  MOVF   77,W
01A2:  MOVWF  21
....................    if(kq>24) set_timer1(1);
01A3:  MOVF   21,W
01A4:  SUBLW  18
01A5:  BTFSC  03.0
01A6:  GOTO   1AC
01A7:  CLRF   0E
01A8:  CLRF   0F
01A9:  MOVLW  01
01AA:  MOVWF  0E
01AB:  NOP
....................    lcd_command(0x80);
01AC:  MOVLW  80
01AD:  MOVWF  2D
01AE:  CALL   03A
....................    printf(lcd_data,"SO SAN PHAM: %02u CAI",kq);
01AF:  MOVLW  04
01B0:  BSF    03.6
01B1:  MOVWF  0D
01B2:  MOVLW  00
01B3:  MOVWF  0F
01B4:  BCF    03.0
01B5:  MOVLW  0D
01B6:  BCF    03.6
01B7:  MOVWF  2D
01B8:  CALL   0F8
01B9:  MOVF   21,W
01BA:  MOVWF  2D
01BB:  MOVLW  01
01BC:  MOVWF  2E
01BD:  CALL   164
01BE:  MOVLW  0C
01BF:  BSF    03.6
01C0:  MOVWF  0D
01C1:  MOVLW  00
01C2:  MOVWF  0F
01C3:  BSF    03.0
01C4:  MOVLW  04
01C5:  BCF    03.6
01C6:  MOVWF  2D
01C7:  CALL   0F8
01C8:  BCF    0A.3
01C9:  BCF    0A.4
01CA:  GOTO   44D (RETURN)
....................    
.................... }
.................... void demdongho(){
....................    if(t0if==1){
01CB:  BTFSS  0B.2
01CC:  GOTO   1E7
....................       set_timer0(5.6);
01CD:  MOVLW  81
01CE:  MOVWF  01
....................       bdn++;
01CF:  INCF   22,F
....................       t0if=0;
01D0:  BCF    0B.2
....................       if(bdn==78){
01D1:  MOVF   22,W
01D2:  SUBLW  4E
01D3:  BTFSS  03.2
01D4:  GOTO   1E7
....................          bdn=0;
01D5:  CLRF   22
....................          giay++;
01D6:  INCF   25,F
....................          if(giay>59){
01D7:  MOVF   25,W
01D8:  SUBLW  3B
01D9:  BTFSC  03.0
01DA:  GOTO   1E7
....................             giay=0;
01DB:  CLRF   25
....................             phut++;
01DC:  INCF   24,F
....................             if(phut>59){
01DD:  MOVF   24,W
01DE:  SUBLW  3B
01DF:  BTFSC  03.0
01E0:  GOTO   1E7
....................                phut=0;
01E1:  CLRF   24
....................                gio++;
01E2:  INCF   23,F
....................                if(gio>23) gio =0;
01E3:  MOVF   23,W
01E4:  SUBLW  17
01E5:  BTFSS  03.0
01E6:  CLRF   23
....................             }
....................          }
....................       }
....................    }
....................    lcd_command(0xc0);
01E7:  MOVLW  C0
01E8:  MOVWF  2D
01E9:  CALL   03A
....................    printf(lcd_data,"THOI GIAN: %02u:%02u:%02u",gio,phut,giay);
01EA:  MOVLW  0F
01EB:  BSF    03.6
01EC:  MOVWF  0D
01ED:  MOVLW  00
01EE:  MOVWF  0F
01EF:  BCF    03.0
01F0:  MOVLW  0B
01F1:  BCF    03.6
01F2:  MOVWF  2D
01F3:  CALL   0F8
01F4:  MOVF   23,W
01F5:  MOVWF  2D
01F6:  MOVLW  01
01F7:  MOVWF  2E
01F8:  CALL   164
01F9:  MOVLW  3A
01FA:  MOVWF  36
01FB:  CALL   081
01FC:  MOVF   24,W
01FD:  MOVWF  2D
01FE:  MOVLW  01
01FF:  MOVWF  2E
0200:  CALL   164
0201:  MOVLW  3A
0202:  MOVWF  36
0203:  CALL   081
0204:  MOVF   25,W
0205:  MOVWF  2D
0206:  MOVLW  01
0207:  MOVWF  2E
0208:  CALL   164
0209:  BCF    0A.3
020A:  BCF    0A.4
020B:  GOTO   44E (RETURN)
.................... }
.................... void lm35(){
....................    set_adc_channel(6);
*
0375:  MOVLW  18
0376:  MOVWF  78
0377:  MOVF   1F,W
0378:  ANDLW  C3
0379:  IORWF  78,W
037A:  MOVWF  1F
.................... //!   kqadc1=read_adc()/2.046; // 10 bit tham chieu noi
....................    kqadc1=read_adc()/2.55; // 8 bit tham chieu ngoai
037B:  BSF    1F.1
037C:  BTFSC  1F.1
037D:  GOTO   37C
037E:  CLRF   2F
037F:  MOVF   1E,W
0380:  MOVWF  2E
0381:  CALL   20C
0382:  MOVF   7A,W
0383:  MOVWF  31
0384:  MOVF   79,W
0385:  MOVWF  30
0386:  MOVF   78,W
0387:  MOVWF  2F
0388:  MOVF   77,W
0389:  MOVWF  2E
038A:  MOVLW  33
038B:  MOVWF  35
038C:  MOVWF  34
038D:  MOVLW  23
038E:  MOVWF  33
038F:  MOVLW  80
0390:  MOVWF  32
0391:  CALL   229
0392:  MOVF   7A,W
0393:  MOVWF  30
0394:  MOVF   79,W
0395:  MOVWF  2F
0396:  MOVF   78,W
0397:  MOVWF  2E
0398:  MOVF   77,W
0399:  MOVWF  2D
039A:  CALL   2F3
039B:  MOVF   79,W
039C:  MOVWF  28
039D:  MOVF   78,W
039E:  MOVWF  27
....................    lcd_command(0x94);
039F:  MOVLW  94
03A0:  MOVWF  2D
03A1:  CALL   03A
....................    printf(lcd_data,"%02lu C",kqadc1);
03A2:  MOVLW  0B
03A3:  MOVWF  04
03A4:  MOVF   28,W
03A5:  MOVWF  2E
03A6:  MOVF   27,W
03A7:  MOVWF  2D
03A8:  CALL   312
03A9:  MOVLW  20
03AA:  MOVWF  36
03AB:  CALL   081
03AC:  MOVLW  43
03AD:  MOVWF  36
03AE:  CALL   081
....................    lcd_command(0x94+2);
03AF:  MOVLW  96
03B0:  MOVWF  2D
03B1:  CALL   03A
....................    lcd_data(0xdf);
03B2:  MOVLW  DF
03B3:  MOVWF  36
03B4:  CALL   081
....................    set_adc_channel(7);
03B5:  MOVLW  1C
03B6:  MOVWF  78
03B7:  MOVF   1F,W
03B8:  ANDLW  C3
03B9:  IORWF  78,W
03BA:  MOVWF  1F
.................... //!   kqadc2=read_adc()/2.046; // 10 bit tham chieu noi
....................    kqadc2=read_adc()/2.55; // 8 bit tham chieu ngoai
03BB:  BSF    1F.1
03BC:  BTFSC  1F.1
03BD:  GOTO   3BC
03BE:  CLRF   2F
03BF:  MOVF   1E,W
03C0:  MOVWF  2E
03C1:  CALL   20C
03C2:  MOVF   7A,W
03C3:  MOVWF  31
03C4:  MOVF   79,W
03C5:  MOVWF  30
03C6:  MOVF   78,W
03C7:  MOVWF  2F
03C8:  MOVF   77,W
03C9:  MOVWF  2E
03CA:  MOVLW  33
03CB:  MOVWF  35
03CC:  MOVWF  34
03CD:  MOVLW  23
03CE:  MOVWF  33
03CF:  MOVLW  80
03D0:  MOVWF  32
03D1:  CALL   229
03D2:  MOVF   7A,W
03D3:  MOVWF  30
03D4:  MOVF   79,W
03D5:  MOVWF  2F
03D6:  MOVF   78,W
03D7:  MOVWF  2E
03D8:  MOVF   77,W
03D9:  MOVWF  2D
03DA:  CALL   2F3
03DB:  MOVF   79,W
03DC:  MOVWF  2A
03DD:  MOVF   78,W
03DE:  MOVWF  29
....................    lcd_command(0x94+16);
03DF:  MOVLW  A4
03E0:  MOVWF  2D
03E1:  CALL   03A
....................    printf(lcd_data,"%02lu C",kqadc2);
03E2:  MOVLW  0B
03E3:  MOVWF  04
03E4:  MOVF   2A,W
03E5:  MOVWF  2E
03E6:  MOVF   29,W
03E7:  MOVWF  2D
03E8:  CALL   312
03E9:  MOVLW  20
03EA:  MOVWF  36
03EB:  CALL   081
03EC:  MOVLW  43
03ED:  MOVWF  36
03EE:  CALL   081
....................    lcd_command(0x94+18);
03EF:  MOVLW  A6
03F0:  MOVWF  2D
03F1:  CALL   03A
....................    lcd_data(0xdf);
03F2:  MOVLW  DF
03F3:  MOVWF  36
03F4:  CALL   081
03F5:  BCF    0A.3
03F6:  BCF    0A.4
03F7:  GOTO   44F (RETURN)
.................... }
.................... void main()
03F8:  MOVF   03,W
03F9:  ANDLW  1F
03FA:  MOVWF  03
03FB:  MOVLW  FF
03FC:  MOVWF  20
03FD:  CLRF   23
03FE:  CLRF   24
03FF:  CLRF   25
0400:  BCF    26.0
0401:  CLRF   2C
0402:  CLRF   2B
0403:  BSF    03.5
0404:  BSF    03.6
0405:  MOVF   09,W
0406:  ANDLW  C0
0407:  MOVWF  09
0408:  BCF    03.6
0409:  BCF    1F.4
040A:  BCF    1F.5
040B:  MOVLW  00
040C:  BSF    03.6
040D:  MOVWF  08
040E:  BCF    03.5
040F:  CLRF   07
0410:  CLRF   08
0411:  CLRF   09
0412:  BCF    03.7
.................... {
....................    set_tris_c(0x01);
0413:  MOVLW  01
0414:  BSF    03.5
0415:  BCF    03.6
0416:  MOVWF  07
0417:  BCF    03.5
0418:  MOVWF  20
....................    set_tris_d(0);
0419:  MOVLW  00
041A:  BSF    03.5
041B:  MOVWF  08
....................    set_tris_e(0xff);
041C:  BSF    09.0
041D:  BSF    09.1
041E:  BSF    09.2
041F:  BSF    09.3
....................    lcd_setup();
0420:  BCF    03.5
0421:  GOTO   06F
....................    lcd_command(0xd4);
0422:  MOVLW  D4
0423:  MOVWF  2D
0424:  CALL   03A
....................    lcd_data("DANG DUNG");
0425:  MOVLW  1C
0426:  BSF    03.6
0427:  MOVWF  0D
0428:  MOVLW  00
0429:  MOVWF  0F
042A:  BCF    03.6
042B:  CALL   0A2
....................    setup_timer_1(t1_disabled);
042C:  CLRF   10
....................    set_timer1(0);
042D:  CLRF   0E
042E:  CLRF   0F
042F:  CLRF   0E
0430:  NOP
....................    setup_timer_0(t0_internal|t0_div_256);
0431:  BSF    03.5
0432:  MOVF   01,W
0433:  ANDLW  C0
0434:  IORLW  07
0435:  MOVWF  01
....................    set_timer0(5.6);
0436:  MOVLW  81
0437:  BCF    03.5
0438:  MOVWF  01
....................    setup_adc(adc_clock_div_32);
0439:  BCF    1F.6
043A:  BSF    1F.7
043B:  BSF    03.5
043C:  BCF    1F.7
043D:  BCF    03.5
043E:  BSF    1F.0
.................... //!   setup_adc_ports(san6|san7|vss_vdd);
....................    setup_adc_ports(san6|san7|vref_vref);
043F:  BSF    03.5
0440:  BSF    03.6
0441:  MOVF   09,W
0442:  ANDLW  C0
0443:  MOVWF  09
0444:  BCF    03.6
0445:  BSF    1F.4
0446:  BSF    1F.5
0447:  MOVLW  C0
0448:  BSF    03.6
0449:  MOVWF  08
....................    while(true)
....................    {
....................       demsp();
044A:  BCF    03.5
044B:  BCF    03.6
044C:  GOTO   199
....................       demdongho();
044D:  GOTO   1CB
....................       lm35();
044E:  GOTO   375
....................       if(input(pin_e0)==0){
044F:  BSF    03.5
0450:  BSF    09.0
0451:  BCF    03.5
0452:  BTFSC  09.0
0453:  GOTO   47D
....................          delay_ms(20);
0454:  MOVLW  14
0455:  MOVWF  2D
0456:  CALL   05B
....................          if(input(pin_e0)==0){
0457:  BSF    03.5
0458:  BSF    09.0
0459:  BCF    03.5
045A:  BTFSC  09.0
045B:  GOTO   47D
....................             ttdem=!ttdem;
045C:  MOVLW  01
045D:  XORWF  26,F
....................             if(ttdem==1){
045E:  BTFSS  26.0
045F:  GOTO   46D
....................                setup_timer_1(t1_external|t1_div_by_1);
0460:  MOVLW  07
0461:  MOVWF  10
....................                lcd_command(0xd4);
0462:  MOVLW  D4
0463:  MOVWF  2D
0464:  CALL   03A
....................                lcd_data("DANG CHAY");
0465:  MOVLW  21
0466:  BSF    03.6
0467:  MOVWF  0D
0468:  MOVLW  00
0469:  MOVWF  0F
046A:  BCF    03.6
046B:  CALL   0A2
....................             }
046C:  GOTO   478
....................             else {
....................                lcd_command(0xd4);
046D:  MOVLW  D4
046E:  MOVWF  2D
046F:  CALL   03A
....................                lcd_data("DANG DUNG");
0470:  MOVLW  26
0471:  BSF    03.6
0472:  MOVWF  0D
0473:  MOVLW  00
0474:  MOVWF  0F
0475:  BCF    03.6
0476:  CALL   0A2
....................                setup_timer_1(t1_disabled);
0477:  CLRF   10
....................             }
....................             while(input(pin_e0)==0);
0478:  BSF    03.5
0479:  BSF    09.0
047A:  BCF    03.5
047B:  BTFSS  09.0
047C:  GOTO   478
....................          }
....................       }
047D:  GOTO   44C
....................    }
.................... }
047E:  SLEEP

Configuration Fuses:
   Word  1: 2FE2   HS NOWDT PUT MCLR NOPROTECT NOCPD BROWNOUT IESO FCMEN NOLVP NODEBUG
   Word  2: 3FFF   BORV40 NOWRT
